target datalayout = "e-m:e-p270:32:32-p271:32:32-p272:64:64-i64:64-i128:128-f80:128-n8:16:32:64-S128"
target triple = "x86_64-pc-linux-gnu"

%class.hwf_manager = type { %class.mpq_manager, ptr }
%class.mpq_manager = type { %class.mpz_manager, %class.mpz, %class.mpz, %class.mpz, %class.mpz, %class.mpq, %class.mpq }
%class.mpz_manager = type { %class.small_object_allocator, %"class.std::recursive_mutex", [4 x i8], i32, %class.mpz, %class.mpz }
%class.small_object_allocator = type { [32 x ptr], [32 x ptr], i64 }
%"class.std::recursive_mutex" = type { %"class.std::__recursive_mutex_base" }
%"class.std::__recursive_mutex_base" = type { %union.pthread_mutex_t }
%union.pthread_mutex_t = type { %struct.__pthread_mutex_s }
%struct.__pthread_mutex_s = type { i32, i32, i32, i32, i32, i16, i16, %struct.__pthread_internal_list }
%struct.__pthread_internal_list = type { ptr, ptr }
%class.mpz = type { i32, i8, ptr }
%class.mpq = type { %class.mpz, %class.mpz }
%class.hwf = type { double }

@.str.7 = private unnamed_addr constant [100 x i8] c"generated/home/dtcxzyw/WorkSpace/Projects/compilers/llvm-opt-benchmark/bench/z3/z3/src/util/hwf.cpp\00", align 1
@.str.8 = private unnamed_addr constant [29 x i8] c"UNEXPECTED CODE WAS REACHED.\00", align 1

; Function Attrs: inlinehint mustprogress uwtable
define linkonce_odr hidden void @_ZN11hwf_manager17set_rounding_modeE17mpf_rounding_mode(ptr noundef nonnull align 8 dereferenceable(736) %0, i32 noundef %1) #8 comdat align 2 {
  %3 = alloca ptr, align 8
  %4 = alloca i32, align 4
  store ptr %0, ptr %3, align 8, !tbaa !3
  store i32 %1, ptr %4, align 4, !tbaa !22
  %5 = load i32, ptr %4, align 4, !tbaa !22
  switch i32 %5, label %15 [
    i32 0, label %6
    i32 2, label %8
    i32 3, label %10
    i32 4, label %12
    i32 1, label %14
  ]

6:                                                ; preds = %2
  %7 = call i32 @fesetround(i32 noundef 0) #3
  br label %16

8:                                                ; preds = %2
  %9 = call i32 @fesetround(i32 noundef 2048) #3
  br label %16

10:                                               ; preds = %2
  %11 = call i32 @fesetround(i32 noundef 1024) #3
  br label %16

12:                                               ; preds = %2
  %13 = call i32 @fesetround(i32 noundef 3072) #3
  br label %16

14:                                               ; preds = %2
  br label %15

15:                                               ; preds = %2, %14
  call void @_Z26notify_assertion_violationPKciS0_(ptr noundef @.str.7, i32 noundef 607, ptr noundef @.str.8)
  call void @_Z18invoke_exit_actionj(i32 noundef 114)
  br label %16

16:                                               ; preds = %15, %12, %10, %8, %6
  ret void
}

; Function Attrs: mustprogress uwtable
define hidden void @_ZN11hwf_manager3setER3hwf17mpf_rounding_modeRK3mpq(ptr noundef nonnull align 8 dereferenceable(736) %0, ptr noundef nonnull align 8 dereferenceable(8) %1, i32 noundef %2, ptr noundef nonnull align 8 dereferenceable(32) %3) #4 align 2 {
  %5 = alloca ptr, align 8
  %6 = alloca ptr, align 8
  %7 = alloca i32, align 4
  %8 = alloca ptr, align 8
  store ptr %0, ptr %5, align 8, !tbaa !3
  store ptr %1, ptr %6, align 8, !tbaa !16
  store i32 %2, ptr %7, align 4, !tbaa !22
  store ptr %3, ptr %8, align 8, !tbaa !26
  %9 = load ptr, ptr %5, align 8
  %10 = load i32, ptr %7, align 4, !tbaa !22
  call void @_ZN11hwf_manager17set_rounding_modeE17mpf_rounding_mode(ptr noundef nonnull align 8 dereferenceable(736) %9, i32 noundef %10)
  %11 = getelementptr inbounds nuw %class.hwf_manager, ptr %9, i32 0, i32 0
  %12 = load ptr, ptr %8, align 8, !tbaa !26
  %13 = call noundef double @_ZNK11mpq_managerILb0EE10get_doubleERK3mpq(ptr noundef nonnull align 8 dereferenceable(728) %11, ptr noundef nonnull align 8 dereferenceable(32) %12)
  %14 = load ptr, ptr %6, align 8, !tbaa !16
  %15 = getelementptr inbounds nuw %class.hwf, ptr %14, i32 0, i32 0
  store double %13, ptr %15, align 8, !tbaa !20
  ret void
}